ccollections
defaultdict
p0
(c__builtin__
bool
p1
tp2
Rp3
V\u3055\u3068\u3046
p4
I01
sV\u3057\u308d\u305a
p5
I01
sV\u3042\u308f\u3082\u308a
p6
I01
sS''
p7
I01
sV\u305b\u3093\u3060\u3044\u307f\u305d
p8
I01
sV\u3054\u307e\u3057\u3087\u3046\u3086
p9
I01
sV\u3070\u305f\u30fc
p10
I01
sV\u3070\u306b\u3089
p11
I01
sV\u308b\u30fc
p12
I01
sV\u304f\u308d\u30fc\u3076
p13
I01
sV\u306f\u3063\u307d\u3046
p14
I01
sV\u304b\u3082\u3042\u3076\u3089
p15
I01
sV\u304b\u3059\u305a
p16
I01
sV\u3059\u3058\u3087\u3046\u3086
p17
I01
sV\u3055\u3044\u304d\u3087\u3046\u307f\u305d
p18
I01
sV\u3057\u3087\u30fc\u3068\u306b\u3093\u3050
p19
I01
sV\u3053\u304f\u3082\u3064
p20
I01
sV\u3061\u308a\u3071\u3046\u3060\u30fc
p21
I01
sV\u3071\u30fc\u3080\u3042\u3076\u3089
p22
I01
sV\u304f\u3080\u305d\u30fc\u3059
p23
I01
sV\u3046\u3081\u3057\u3085
p24
I01
sV\u3055\u3046\u3056\u3093\u3042\u3044\u3089\u3093\u3069\u3069\u308c\u3063\u3057\u3093\u3050
p25
I01
sV\u3068\u307e\u3068\u3051\u3061\u3083\u3063\u3077
p26
I01
sV\u3055\u3064\u307e\u307f\u305d
p27
I01
sV\u3059\u30fc\u3077\u3059\u3068\u3063\u304f
p28
I01
sV\u3055\u308b\u3055\u305d\u30fc\u3059
p29
I01
sV\u3088\u30fc\u3050\u308b\u3068\u305d\u30fc\u3059
p30
I01
sV\u3046\u3081\u305a
p31
I01
sV\u304d\u308b\u3057\u3085\u3057\u3085
p32
I01
sV\u3057\u308d\u307f\u305d
p33
I01
sV\u3068\u3046\u3070\u3093\u3058\u3083\u3093
p34
I01
sV\u304d\u3083\u306e\u30fc\u3089\u3086
p35
I01
sV\u304f\u3061\u306a\u3057
p36
I01
sV\u3076\u30fc\u308b\u3076\u3089\u3093
p37
I01
sV\u304f\u3058\u3085\u3046
p38
I01
sV\u305d\u30fc\u3059\u3082\u308b\u306d\u30fc
p39
I01
sV\u3070\u3044\u306b\u304f
p40
I01
sV\u3048\u3073\u3072\u304d
p41
I01
sV\u3075\u308c\u3093\u3061\u307e\u3059\u305f\u30fc\u3069
p42
I01
sV\u3056\u3063\u3057\u3085
p43
I01
sV\u3053\u3093\u305d\u3081
p44
I01
sV\u3068\u3093\u304b\u3064\u305d\u30fc\u3059\u3061\u3085\u3046\u306e\u3046\u305d\u30fc\u3059
p45
I01
sV\u3074\u30fc\u306a\u3063\u3064\u307a\u30fc\u3059\u3068
p46
I01
sV\u3053\u3046\u304b\u3059
p47
I01
sV\u304c\u3093\u307f\u3064\u3068\u3046
p48
I01
sV\u3055\u304f\u3089\u307f\u305d
p49
I01
sV\u305d\u30fc\u3059\u3079\u3057\u3083\u3081\u308b
p50
I01
sV\u307b\u3048\u3070\u305f\u30fc
p51
I01
sV\u308c\u3082\u3093\u3050\u3089\u3059\u3042\u3076\u3089
p52
I01
sV\u3066\u3063\u304b\u307f\u305d
p53
I01
sV\u305d\u30fc\u3059\u3079\u308b\u3057\u30fc
p54
I01
sV\u304d\u3082
p55
I01
sV\u304c\u30fc\u308a\u3063\u304f\u305d\u30fc\u3059
p56
I01
sV\u3042\u307e\u305a
p57
I01
sV\u306b\u306f\u3044\u305a
p58
I01
sV\u3061\u308a\u305d\u30fc\u3059
p59
I01
sV\u3060\u3044\u3053\u3093\u304a\u308d\u3057
p60
I01
sV\u3048\u3063\u304f\u3059\u304a\u30fc\u3058\u3083\u3093
p61
I01
sV\u304b\u304b\u304a\u3042\u3076\u3089
p62
I01
sV\u3048\u3069\u3042\u307e\u307f\u305d
p63
I01
sV\u307b\u30fc\u3059\u3089\u3067\u3043\u3063\u3057\u3085
p64
I01
sV\u305d\u30fc\u3059\u3057\u3087\u30fc\u3075\u308d\u308f
p65
I01
sV\u305d\u30fc\u3059\u3067\u3043\u3042\u30fc\u3076\u308b
p66
I01
sV\u3046\u3059\u305f\u30fc\u305d\u30fc\u3059
p67
I01
sV\u3046\u307e
p68
I01
sV\u307e\u3088\u306d\u30fc\u305a
p69
I01
sV\u30d7\u30e9\u30fc\u30e9\u30fc
p70
I01
sV\u3089\u30fc\u3069
p71
I01
sV\u308f\u308a\u3057\u305f
p72
I01
sV\u3064\u3076\u307e\u3059\u305f\u30fc\u3069
p73
I01
sV\u308d\u30fc\u305a\u307e\u308a\u30fc
p74
I01
sV\u3088\u3057\u306e
p75
I01
sV\u30d5\u30a9\u30e1\u3069\u307d\u308f\u305d\u3093
p76
I01
sV\u3055\u304b\u306a\u3064\u3086
p77
I01
sV\u3071\u305b\u308a\u3070\u305f\u30fc
p78
I01
sV\u306b\u3085\u3046\u3068\u3046
p79
I01
sV\u3050\u308c\u30fc\u3077\u3057\u30fc\u3069\u3042\u3076\u3089
p80
I01
sV\u3048\u3073\u3072\u3057\u304a
p81
I01
sV\u3057\u304a\u307f\u305a
p82
I01
sV\u304b\u306b\u3042\u3076\u3089
p83
I01
sV\u308f\u3055\u3093\u307c\u3093
p84
I01
sV\u3060\u3057
p85
I01
sV\u305f\u3067\u305a
p86
I01
sV\u3082\u3068\u3058\u304a
p87
I01
sV\u305d\u30fc\u3059\u3057\u3085\u3077\u308c\u30fc\u3080
p88
I01
sV\u3086
p89
I01
sV\u30d1\u30c6\u30a3\u30b9
p90
I01
sV\u3078\u3063\u3068
p91
I01
sV\u3070\u3058\u308b
p92
I01
sV\u3046\u307e\u307f\u3061\u3087\u3046\u307f\u308a\u3087\u3046
p93
I01
sV\u3057\u3087\u304f\u305f\u304f\u3048\u3093
p94
I01
sV\u304b\u308b\u3060\u3082\u3093
p95
I01
sV\u304b\u3084\u3042\u3076\u3089
p96
I01
sV\u3075\u308b\u30fc\u3064
p97
I01
sV\u304d\u306e\u3081\u3057\u3087\u3046\u3086
p98
I01
sV\u304b\u3064\u304a\u304b\u3064\u304a
p99
I01
sV\u307d\u3093\u305a
p100
I01
sV\u3080\u3048\u3093\u3070\u305f\u30fc
p101
I01
sV\u305f\u307e\u308a\u3093\u3069\u307a\u30fc\u3059\u3068
p102
I01
sV\u3061\u3087\u3058\u3083\u3093
p103
I01
sV\u3051\u3063\u3057\u3087\u3046
p104
I01
sV\u3060\u3057\u3082\u3068
p105
I01
sV\u306f\u30fc\u3076
p106
I01
sV\u307f\u30fc\u3068\u305d\u30fc\u3059
p107
I01
sV\u304b\u305f\u304f\u308a\u3053
p108
I01
sV\u3053\u3077\u3089\u3042\u3076\u3089
p109
I01
sV\u305d\u30fc\u3059\u304a\u3074\u3059\u3068\u3045\u30fc
p110
I01
sV\u3086\u305a\u307f\u305d
p111
I01
sV\u305f\u3089\u3054\u3093
p112
I01
sV\u3051\u3044\u304b\u3072\u3057\u304a
p113
I01
sV\u3055\u3093\u3057\u3087\u3046
p114
I01
sV\u3068\u304f\u3057\u3085\u3057\u304a
p115
I01
sV\u3057\u3089\u3057\u3081\u3086
p116
I01
sV\u3055\u3057\u307f\u3057\u3087\u3046\u3086
p117
I01
sV\u3057\u3061\u307f\u3068\u3046\u304c\u3089\u3057
p118
I01
sV\u305f\u3061\u3046\u304a
p119
I01
sV\u3042\u308f\u305b\u305a
p120
I01
sV\u3054\u307e\u3042\u3076\u3089
p121
I01
sV\u3057\u3087\u3063\u3064\u308b
p122
I01
sV\u3089\u30fc\u3086
p123
I01
sV\u3057\u3087\u3068\u3046
p124
I01
sV\u307e\u3059\u305f\u30fc\u3069
p125
I01
sV\u305f\u3067
p126
I01
sV\u307e\u3058\u3087\u3089\u3080
p127
I01
sV\u3053\u306b\u3083\u3063\u304f
p128
I01
sV\u305d\u30fc\u3059\u30de\u30c7\u30fc\u30eb
p129
I01
sV\u3059\u307f\u305d
p130
I01
sV\u3086\u3057
p131
I01
sV\u3046\u3059\u304f\u3061\u3057\u3087\u3046\u3086\u3046\u3059\u304f\u3061\u3057\u3087\u3046\u3086
p132
I01
sV\u3086\u305a
p133
I01
sV\u3057\u3093\u3057\u3085\u3046\u307f\u305d
p134
I01
sV\u3054\u3068\u307f\u305d
p135
I01
sV\u3055\u3075\u3089\u3093
p136
I01
sV\u3042\u3093\u3061\u3087\u3073\u305d\u30fc\u3059
p137
I01
sV\u30db\u30a4\u30c3\u30d7\u30c8\u30d0\u30bf\u30fc
p138
I01
sV\u3052\u3089\u3093\u3069
p139
I01
sV\u3057\u3050\u308c\u307f\u305d
p140
I01
sV\u3053\u3057\u3087\u3046\u307a\u3063\u3071\u30fc
p141
I01
sV\u305f\u3067\u305a\u307f\u305d
p142
I01
sV\u306d\u304e\u307f\u305d
p143
I01
sV\u305d\u30fc\u3059\u307a\u308a\u3050\u30fc
p144
I01
sV\u3046\u306b\u3057\u304a
p145
I01
sV\u3086\u304b\u308a
p146
I01
sV\u3053\u3044\u304f\u3061\u3057\u3087\u3046\u3086
p147
I01
sV\u304b\u3068\u3046\u308c\u3093\u306b\u3085\u3046
p148
I01
sV\u3076\u30fc\u3051\u304c\u308b\u306b
p149
I01
sV\u3053\u3061\u3085
p150
I01
sV\u304b\u3044\u305b\u3093\u3072\u3057\u304a
p151
I01
sV\u30cb\u30e7\u30af\u307e\u3080
p152
I01
sV\u3060\u3044\u3060\u3044
p153
I01
sV\u3067\u3043\u308b
p154
I01
sV\u307d\u3093\u305a\u3057\u3087\u3046\u3086
p155
I01
sV\u3072\u3057\u304a\u307f\u305d
p156
I01
sV\u3075\u305f\u3068\u3046
p157
I01
sV\u3053\u3046\u3082
p158
I01
sV\u3048\u3093\u308a\u3063\u3061\u3057\u304a
p159
I01
sV\u304a\u3044\u3059\u305f\u30fc\u305d\u30fc\u3059
p160
I01
sV\u305d\u30fc\u3059\u308c\u3080\u3089\u30fc\u3069
p161
I01
sV\u3081\u3093\u3075\u3043\u3063\u3057\u3085\u305d\u30fc\u3059
p162
I01
sV\u3066\u3093\u3081\u3093\u3058\u3083\u3093
p163
I01
sV\u3081\u3093\u3058\u3064\u3086
p164
I01
sV\u3048\u3061\u3054\u307f\u305d
p165
I01
sV\u3059\u3044\u30fc\u3068\u3061\u308a\u305d\u30fc\u3059
p166
I01
sV\u307f\u305d
p167
I01
sV\u306a\u305f\u306d\u3042\u3076\u3089
p168
I01
sV\u3068\u3055\u3057\u3087\u3046\u3086
p169
I01
sV\u3069\u3046\u3076\u3064\u305b\u3044\u3042\u3076\u3089
p170
I01
sV\u3053\u304a\u308a\u3056\u3068\u3046
p171
I01
sV\u3048\u3073\u3042\u3076\u3089
p172
I01
sV\u3054\u307e\u307f\u305d
p173
I01
sV\u307f\u308a\u3093
p174
I01
sV\u305d\u30fc\u3059\u30dd\u30ef\u30f4\u30e9\u30fc\u30c9
p175
I01
sV\u3053\u3093\u3076
p176
I01
sV\u305d\u30fc\u3059\u3055\u308b\u307f
p177
I01
sV\u3042\u304b\u307f\u305d
p178
I01
sV\u3068\u3046\u304c\u3089\u3057
p179
I01
sV\u3076\u3069\u3046\u3068\u3046
p180
I01
sV\u3057\u308d\u308f\u3044\u3093\u3073\u306d\u304c\u30fc
p181
I01
sV\u304b\u304f\u3066\u308b\u305d\u30fc\u3059
p182
I01
sV\u304d\u3082\u3057\u3087\u3046\u3086
p183
I01
sV\u3042\u304b\u3058\u305d
p184
I01
sV\u306a\u307f\u3057\u304a
p185
I01
sV\u308c\u3082\u3093\u3050\u3089\u3059
p186
I01
sV\u3061\u3087\u3046\u304d\u3085\u3046\u3057\u3087\u3046\u3086
p187
I01
sV\u306b\u3057\u304a\u304a\u3068\u308a\u3055\u3051
p188
I01
sV\u3044\u305f\u308a\u3042\u3093\u3071\u305b\u308a
p189
I01
sV\u305d\u30fc\u3059\u304a\u307d\u308b\u3068
p190
I01
sV\u304f\u308b\u307f\u3042\u3076\u3089
p191
I01
sV\u3057\u3087\u3046\u304c\u307f\u305d
p192
I01
sV\u3076\u308b\u30fc\u3079\u308a\u30fc\u3073\u306d\u304c\u30fc
p193
I01
sV\u3042\u3093\u3061\u3087\u3073\u3070\u305f\u30fc
p194
I01
sV\u3089\u3063\u304b\u305b\u3044
p195
I01
sV\u3079\u306b\u3070\u306a\u3042\u3076\u3089
p196
I01
sV\u3075\u3047\u306c\u3050\u308a\u30fc\u304f
p197
I01
sV\u306f\u30fc\u3076\u3042\u3076\u3089
p198
I01
sV\u3054\u307e\u305a
p199
I01
sV\u305d\u30fc\u3059\u304a\u307d\u308f\u3076\u308b\u3079\u30fc\u308b
p200
I01
sV\u308c\u3082\u3093
p201
I01
sV\u3054\u3053\u3046\u307e\u304c\u3044
p202
I01
sV\u3042\u304a\u3068\u3046\u304c\u3089\u3057
p203
I01
sV\u3042\u304b\u3056\u3051
p204
I01
sV\u3075\u306b\u3085\u3046
p205
I01
sV\u3059\u3057\u305a
p206
I01
sV\u307b\u3063\u3068\u307a\u3063\u3071\u30fc\u305d\u30fc\u3059
p207
I01
sV\u3079\u3093\u3059\u3058\u304b\u307f\u3072\u3057\u304a
p208
I01
sV\u306f\u3061\u307f\u3064
p209
I01
sV\u3070\u30fc\u3079\u304d\u3085\u30fc\u305d\u30fc\u3059
p210
I01
sV\u3050\u308c\u30fc\u3073\u30fc\u305d\u30fc\u3059
p211
I01
sV\u3061\u30fc\u3086
p212
I01
sV\u3057\u3087\u3046\u304c\u3057\u3087\u3046\u3086
p213
I01
sV\u3057\u308d\u3075\u305f\u3068\u3046
p214
I01
sV\u3075\u3093\u307e\u3064\u3070\u305f\u30fc
p215
I01
sV\u3042\u3081\u308a\u304b\u3093\u305d\u30fc\u3059
p216
I01
sV\u3058\u3087\u3046\u306f\u304f\u3068\u3046
p217
I01
sV\u304f\u308d\u305a
p218
I01
sV\u3048\u304f\u3059\u3068\u3089\u3070\u30fc\u3058\u3093\u304a\u3044\u308b
p219
I01
sV\u304a\u3044\u3061\u3093\u3059
p220
I01
sV\u3053\u304c\u3057\u3070\u305f\u30fc
p221
I01
sV\u3050\u3089\u306b\u3085\u30fc\u3068\u3046
p222
I01
sV\u3060\u3057\u307f\u305d
p223
I01
sV\u3057\u3047\u308a\u30fc\u3057\u3085
p224
I01
sV\u307b\u308f\u3058\u3083\u304a
p225
I01
sV\u3053\u3053\u306a\u3063\u3064\u307f\u308b\u304f
p226
I01
sV\u306a\u3080\u30d7\u30ea\u30c3\u30af
p227
I01
sV\u304f\u307f\u3093
p228
I01
sV\u306f\u3057\u3089\u3072\u3057\u304a
p229
I01
sV\u3044\u3082\u3042\u3081
p230
I01
sV\u3071\u3077\u308a\u304b
p231
I01
sV\u305d\u30fc\u3059\u306a\u3093\u3061\u3085\u3042
p232
I01
sV\u3057\u3076\u308c\u3063\u3068
p233
I01
sV\u3072\u3057\u304a
p234
I01
sV\u3059
p235
I01
sV\u305d\u30fc\u3059\u306e\u308b\u307e\u3093\u3067\u3043\u30fc
p236
I01
sV\u306a\u3080\u30d7\u30ea\u30c3\u30af\u3071\u304a
p237
I01
sV\u304d\u306e\u3081\u307f\u305d
p238
I01
sV\u3057\u304a
p239
I01
sV\u3075\u3049\u3093\u3069\u30f4\u3049\u30fc
p240
I01
sV\u3052\u3063\u3051\u3044\u3058\u3085\u306f
p241
I01
sV\u3057\u305d
p242
I01
sV\u305d\u30fc\u3059\u304a\u308d\u30fc\u308b
p243
I01
sV\u305b\u30fc\u3058
p244
I01
sV\u305d\u30fc\u3059\u307e\u3088\u306d\u30fc\u305a
p245
I01
sV\u3057\u30fc\u3086\u30fc\u304b\u304a
p246
I01
sV\u3072\u3089\u304c\u307e\u3057\u304a
p247
I01
sV\u305d\u30fc\u3059\u30d9\u30a2\u30eb\u30cd\u30fc\u30ba
p248
I01
sV\u305f\u3044\u3080
p249
I01
sV\u306f\u3063\u3061\u3087\u3046\u307f\u305d\u306f\u3063\u3061\u3087\u3046\u307f\u305d
p250
I01
sV\u304b\u3093\u305e\u3046\u304b\u3093\u305e\u3046
p251
I01
sV\u306a\u307e\u3072\u304d
p252
I01
sV\u3079\u306b\u304b\u3059
p253
I01
sV\u3055\u3044\u305b\u3044\u304b\u3053\u3046\u3057\u304a
p254
I01
sV\u304b\u3093\u305d\u3046\u307f\u305d
p255
I01
sV\u3059\u3071\u3044\u3057\u30fc\u3073\u306d\u304c\u30fc
p256
I01
sV\u3055\u3093\u304a\u3093\u3068\u3046
p257
I01
sV\u3066\u3093\u306d\u3093\u3061\u3087\u3046\u307f\u308a\u3087\u3046
p258
I01
sV\u3074\u30fc\u306a\u3064\u3042\u3076\u3089
p259
I01
sV\u305d\u30fc\u3059\u304b\u308b\u3067\u3043\u306a\u308b
p260
I01
sV\u3057\u3085\u3058\u3087\u3046
p261
I01
sV\u3082\u3057\u304a
p262
I01
sV\u306d\u304e\u3042\u3076\u3089
p263
I01
sV\u3057\u3087\u304f\u3076\u3064\u305b\u3044\u3042\u3076\u3089
p264
I01
sV\u3051\u3044\u3071\u30fc
p265
I01
sV\u3061\u3093\u3053\u3046
p266
I01
sV\u3058\u3087\u3046\u305e\u3046\u3059
p267
I01
sV\u3058\u30fc\u307e\u30fc\u3058\u3083\u3093
p268
I01
sV\u3075\u3093\u307e\u3064\u3057\u3087\u3046\u3086
p269
I01
sV\u304f\u308d\u3056\u3068\u3046
p270
I01
sV\u304b\u308a\u3085\u3046\u3068\u3046
p271
I01
sV\u3053\u3081\u305a
p272
I01
sV\u3064\u3086
p273
I01
sV\u304b\u3089\u3057
p274
I01
sV\u3089\u304b\u3093\u306f\u3066
p275
I01
sV\u304c\u3080\u3057\u308d\u3063\u3077
p276
I01
sV\u306b\u3093\u306b\u304f\u3042\u3076\u3089
p277
I01
sV\u3055\u3093\u3057\u3087\u3046\u304b\u308f
p278
I01
sV\u3075\u3047\u3093\u3061\u3085\u30fc
p279
I01
sV\u3052\u3093\u3048\u3093
p280
I01
sV\u304a\u30fc\u308b\u3059\u3071\u3044\u3059
p281
I01
sV\u3053\u3081\u3042\u3076\u3089
p282
I01
sV\u307f\u305a\u3042\u3081
p283
I01
sV\u3075\u304f\u3054\u3046\u3061\u3087\u3046\u307f\u308a\u3087\u3046
p284
I01
sV\u3055\u3093\u3057\u3087\u3046\u3057\u304a
p285
I01
sV\u3057\u308d\u3053\u3057\u3087\u3046
p286
I01
sV\u3084\u304d\u307f\u3087\u3046\u3070\u3093
p287
I01
sV\u3057\u305c\u3093\u3046\u307f\u3057\u304a
p288
I01
sV\u304f\u308d\u3057\u3061\u307f
p289
I01
sV\u3055\u3068\u3046\u304d\u3073
p290
I01
sV\u3055\u3093\u3070\u3044\u3055\u3093\u3070
p291
I01
sV\u305f\u30fc\u3081\u308a\u3063\u304f
p292
I01
sV\u305d\u30fc\u3059\u3067\u307f\u3050\u3089\u3059
p293
I01
sV\u305b\u3044\u305b\u3044\u3057\u304a
p294
I01
sV\u3042\u3059\u3074\u3063\u304f
p295
I01
sV\u3072\u304d\u3061\u3083\u3057\u304a
p296
I01
sV\u306f\u3070\u306d\u308d
p297
I01
sV\u305d\u30fc\u3059\u30d3\u30ac\u30e9\u30fc\u30c9
p298
I01
sV\u3089\u3080\u3057\u3085
p299
I01
sV\u304d\u3093\u3056\u3093\u3058\u307f\u305d
p300
I01
sV\u3057\u3087\u3046\u3058\u3093
p301
I01
sV\u304b\u3089\u3081\u308b
p302
I01
sV\u307e\u30fc\u304c\u308a\u3093
p303
I01
sV\u307e\u3081\u307f\u305d
p304
I01
sV\u304d\u3083\u3089\u3046\u3047\u3044
p305
I01
sV\u306b\u307b\u3093\u306f\u3063\u304b
p306
I01
sV\u3082\u307f\u3058\u304a\u308d\u3057
p307
I01
sV\uff2f\uff2b\u305d\u30fc\u3059
p308
I01
sV\u306f\u3044\u3082\u3061\u3055\u3051
p309
I01
sV\u304a\u305c\u3093\u307f\u305d
p310
I01
sV\u305d\u30fc\u3059\u3057\u3083\u3059\u30fc\u308b
p311
I01
sV\u3054\u3046\u305b\u3044
p312
I01
sV\u3055\u30fc\u3061\u3083\u30fc\u3058\u3083\u3093
p313
I01
sV\u3053\u3061\u3085\u3058\u3083\u3093
p314
I01
sV\u3082\u308d\u307f\u307f\u305d
p315
I01
sV\u3057\u3047\u308a\u30fc\u3073\u306d\u304c\u30fc
p316
I01
sV\u304b\u308a\u3093\u3055\u3051
p317
I01
sV\u305b\u308b\u3075\u3043\u30fc\u3086
p318
I01
sV\u3074\u3093\u304f\u307a\u3063\u3071\u30fc
p319
I01
sV\u304b\u3052\u3093
p320
I01
sV\u3086\u305a\u3053\u3057\u3087\u3046\u3086\u305a\u3053\u3057\u3087\u3046
p321
I01
sV\u3071\u3093\u3077\u304d\u3093\u3057\u30fc\u3069\u3042\u3076\u3089
p322
I01
sV\u3042\u3089\u3057\u304a
p323
I01
sV\u3059\u3060\u3061
p324
I01
sV\u304f\u308b\u307e\u3068\u3046
p325
I01
sV\u3061\u3093\u3074\u3061\u3093\u3074
p326
I01
sV\u3068\u307e\u3068\u305d\u30fc\u3059
p327
I01
sV\u305d\u30fc\u3059\u30d3\u30cd\u30b0\u30ec\u30c3\u30c9\u3075\u308c\u3093\u3061\u3069\u308c\u3063\u3057\u3093\u3050
p328
I01
sV\u305b\u3068\u307b\u3093\u3057\u304a
p329
I01
sV\u308c\u3082\u3093\u3070\u30fc\u3080
p330
I01
sV\u3042\u3059\u3071\u308b\u3066\u30fc\u3080
p331
I01
sV\u3076\u3093\u307f\u3064\u3068\u3046
p332
I01
sV\u307e\u3067\u3043\u3089\u3057\u3085
p333
I01
sV\u308d\u3046\u3072\u304d
p334
I01
sV\u3042\u3063\u3077\u308b\u3073\u306d\u304c\u30fc
p335
I01
sV\u3057\u3083\u3061\u3083\u3072\u3057\u304a
p336
I01
sV\u3068\u307e\u3068\u3074\u3085\u30fc\u308c\u30fc
p337
I01
sV\u306a\u3093\u3077\u3089\u30fc
p338
I01
sV\u3066\u3093\u3058\u3064\u3057\u304a
p339
I01
sV\u307f\u3069\u308a
p340
I01
sV\u3075\u3046\u307f\u3061\u3087\u3046\u307f
p341
I01
sV\u3042\u30fc\u3082\u3093\u3069\u3070\u305f\u30fc
p342
I01
sV\u3046\u307f\u3057\u304a
p343
I01
sV\u3046\u307e\u3060\u3057
p344
I01
sV\u3076\u3089\u3093\u3057\u3085\u304c\u30fc
p345
I01
sV\u306f\u3063\u304b\u304f
p346
I01
sV\u305f\u3070\u3059\u3053
p347
I01
sV\u304c\u3093\u3048\u3093
p348
I01
sV\u305f\u307e\u308a\u3057\u3087\u3046\u3086
p349
I01
sV\u305d\u30fc\u3059\u305f\u308b\u305f\u308b
p350
I01
sV\u304d\u306e\u3081
p351
I01
sV\u3042\u3076\u3089
p352
I01
sV\u3055\u3051\u304b\u3059
p353
I01
sV\u3057\u305d\u3068\u3046
p354
I01
sV\u3075\u3047\u3093\u306d\u308b\u3057\u30fc\u3069
p355
I01
sV\u304c\u3089\u3080\u307e\u3055\u3089
p356
I01
sV\u306a\u3064\u3081\u3050
p357
I01
sV\u3055\u3093\u3057\u3087\u3046\u307f\u305d
p358
I01
sV\u3057\u3087\u3046\u3053\u3046\u3057\u3085
p359
I01
sV\uff21\uff29\u305d\u30fc\u3059
p360
I01
sV\u307f\u3093\u3068
p361
I01
sV\u3064\u3070\u304d\u3042\u3076\u3089
p362
I01
sV\u3071\u305b\u308a
p363
I01
sV\u3055\u3093\u3070\u308b
p364
I01
sV\u3044\u3061\u3058\u304f
p365
I01
sV\u3044\u308a\u3056\u3051
p366
I01
sV\u304b\u3068\u3046
p367
I01
sV\u3055\u3093\u3057\u3085\u3046\u307f\u305d
p368
I01
sV\u305d\u30fc\u3059\u3079\u308b\u3068
p369
I01
sV\u304e\u3087\u3057\u3087\u3046
p370
I01
sV\u3057\u308d\u3057\u3087\u3046\u3086
p371
I01
sV\u304f\u308c\u305d\u3093
p372
I01
sV\u307f\u3087\u3046\u304c
p373
I01
sV\u3076\u30fc\u308b\u306e\u308f\u305c\u3063\u3068
p374
I01
sV\u3081\u30fc\u3077\u308b\u3057\u308d\u3063\u3077
p375
I01
sV\u3057\u30fc\u305a\u306b\u3093\u3050\u305d\u30fc\u3059
p376
I01
sV\u3057\u308d\u3046\u3081\u305a
p377
I01
sV\u304f\u308a\u30fc\u3080\u305d\u30fc\u3059
p378
I01
sV\u306b\u3093\u306b\u304f
p379
I01
sV\u304f\u308a\u30fc\u3080
p380
I01
sV\u304b\u308c\u30fc\u3053
p381
I01
sV\u305f\u3077\u306a\u30fc\u3069
p382
I01
sV\u305d\u30fc\u3059\u3048\u3059\u3071\u306b\u3087\u30fc\u308b
p383
I01
sV\u3067\u3043\u3058\u3087\u3093\u307e\u3059\u305f\u30fc\u3069
p384
I01
sV\u3057\u306a\u3082\u3093
p385
I01
sV\u307a\u308b\u306e\u30fc
p386
I01
sV\u305f\u3066\u3057\u304a
p387
I01
sV\u3042\u3044\u3088\u308a\u305d\u30fc\u3059
p388
I01
sV\u306a\u304c\u3055\u304d\u307f\u305d
p389
I01
sV\u308f\u3044\u3093\u3073\u306d\u304c\u30fc
p390
I01
sV\u304a\u308c\u304c\u306e
p391
I01
sV\u3075\u3049\u3093\u3069\u307c\u3089\u3044\u3086
p392
I01
sV\u3076\u3089\u3093\u3067\u30fc
p393
I01
sV\u3055\u3051\u306f\u3063\u307d\u3046
p394
I01
sV\u3055\u3073
p395
I01
sV\u305d\u30fc\u3059\u304a\u3089\u3093\u3067\u30fc\u305a
p396
I01
sV\u3042\u304b\u3060\u3057\u307f\u305d
p397
I01
sV\u3066\u3044\u3048\u3093\u3057\u3087\u3046\u3086
p398
I01
sV\u3055\u3051
p399
I01
sV\u3057\u3087\u3046\u3086
p400
I01
sV\u304f\u308d\u3053\u3057\u3087\u3046
p401
I01
sV\u307b\u3093\u3058\u3087\u3046\u305e\u3046\u3057\u3087\u3046\u3086
p402
I01
sV\u3068\u308a\u304c\u3089
p403
I01
sV\u3050\u308a\u30fc\u3093\u307a\u3063\u3071\u30fc
p404
I01
sV\u3044\u3061\u307f\u3068\u3046\u304c\u3089\u3057
p405
I01
sV\u3042\u3052\u3042\u3076\u3089
p406
I01
sV\u3042\u304a\u3058\u305d
p407
I01
sV\u307f\u308a\u3093\u3061\u3087\u3046\u307f\u308a\u3087\u3046
p408
I01
sV\u305d\u3070\u3064\u3086
p409
I01
sV\u306a\u307e\u3042\u3052\u3057\u3087\u3046\u3086
p410
I01
sV\u3082\u308d\u307f\u3057\u3087\u3046\u3086
p411
I01
sV\u3057\u30fc\u3086\u30fc\u3060\u3080
p412
I01
sV\u3042\u3058\u306e\u3082\u3068
p413
I01
sV\u304a\u308a\u30fc\u3076\u304a\u3044\u308b
p414
I01
sV\u3067\u3093\u304c\u304f\u307f\u305d
p415
I01
sV\u3042\u304b\u305a
p416
I01
sV\u3057\u3083\u3093\u3071\u3093\u3073\u306d\u304c\u30fc
p417
I01
sV\u306e\u308a
p418
I01
sV\u305d\u30fc\u3059\u3089\u30f4\u3043\u3054\u3063\u3068
p419
I01
sV\u305d\u30fc\u3059\u304a\u304b\u3057\u3059
p420
I01
sV\u3068\u3093\u3053\u3064
p421
I01
sV\u3077\u30fc\u308b\u3075\u3049\u3093\u3067\u3085
p422
I01
sV\u3055\u3089\u3060\u3042\u3076\u3089
p423
I01
sV\u3056\u3089\u3081
p424
I01
sV\u3061\u308a
p425
I01
sV\u3068\u3055
p426
I01
sV\u3055\u3068\u3046\u3057\u3087\u3046\u3086
p427
I01
sV\u3053\u308a\u3042\u3093\u3060\u30fc
p428
I01
sV\u304f\u305a\u3053
p429
I01
sV\u3075\u3047\u3093\u306d\u308b
p430
I01
sV\u3055\u3089\u3060\u3069\u308c\u3063\u3057\u3093\u3050
p431
I01
sV\u3068\u3046
p432
I01
sV\u3070\u3058\u308b\u307a\u30fc\u3059\u3068
p433
I01
sV\u3054\u307e
p434
I01
sV\u3057\u308d\u3075\u306b\u3085\u3046
p435
I01
sV\u307a\u3063\u3071\u30fc\u305d\u30fc\u3059
p436
I01
sV\u3068\u308a\u3085\u3075
p437
I01
sV\u3070\u308b\u3055\u307f\u3053\u305d\u30fc\u3059
p438
I01
sV\u3070\u304f\u304c\u3068\u3046
p439
I01
sV\u3052\u3044\u3086
p440
I01
sV\u304e\u30fc
p441
I01
sV\u304a\u308c\u3093\u3058\u308a\u304d\u3085\u30fc\u308b
p442
I01
sV\u3042\u306b\u3059
p443
I01
sV\u3089\u3044\u3080
p444
I01
sV\u3053\u3046\u3057\u3093\u308a\u3087\u3046
p445
I01
sV\u3053\u306a\u3056\u3068\u3046
p446
I01
sV\u3068\u3046\u307f\u3064
p447
I01
sV\u3042\u304b\u3056\u3068\u3046
p448
I01
sV\u3070\u3044\u306b\u304f\u3057\u3087\u3046\u3086
p449
I01
sV\u3081\u30fc\u3068\u308b\u3069\u3066\u308b\u3070\u305f\u30fc
p450
I01
sV\u3053\u3093\u3054\u3046
p451
I01
sV\u3057\u305d\u3055\u3051
p452
I01
sV\u305d\u30fc\u3059\u307c\u308b\u3068\u308c\u30fc\u305a
p453
I01
sV\u3057\u3087\u3046\u304c
p454
I01
sV\u3060\u3044\u305a\u3042\u3076\u3089
p455
I01
sV\u3053\u30fc\u3093\u3086
p456
I01
sV\u3070\u308b\u3055\u307f\u3053
p457
I01
sV\u305d\u30fc\u3059\u30d9\u30eb\u30fc\u30c6
p458
I01
sV\u307f\u305e\u308c
p459
I01
sV\u304b\u3057\u304a\u3070\u305f\u30fc
p460
I01
sV\u3053\u3046\u305d\u3046\u3070\u305f\u30fc
p461
I01
sV\u306b\u3070\u3093\u3060\u3057
p462
I01
sV\u304d\u306a\u3053
p463
I01
sV\u3076\u3044\u3088\u3093
p464
I01
sV\u3051\u3061\u3083\u3063\u3077\u307e\u306b\u3059
p465
I01
sV\u3076\u30fc\u308b\u307e\u306b\u3048
p466
I01
sV\u3057\u308d\u3056\u3051
p467
I01
s.